target datalayout = "e-m:e-p270:32:32-p271:32:32-p272:64:64-i64:64-i128:128-f80:128-n8:16:32:64-S128"
target triple = "x86_64-pc-linux-gnu"

%struct.reassembly_table = type { ptr, ptr, ptr, ptr, ptr }
%struct.reassembly_table_functions = type { ptr, ptr, ptr, ptr, ptr, ptr }

@proto_register_gsm_cbch.ett = internal global [5 x ptr] [ptr @ett_cbch_msg, ptr @ett_schedule_msg, ptr @ett_schedule_new_msg, ptr @ett_cbch_fragment, ptr @ett_cbch_fragments], align 16
@.str.58 = private unnamed_addr constant [27 x i8] c"GSM Cell Broadcast Channel\00", align 1
@.str.59 = private unnamed_addr constant [9 x i8] c"GSM CBCH\00", align 1
@.str.60 = private unnamed_addr constant [9 x i8] c"gsm_cbch\00", align 1
@proto_cbch = internal global i32 0, align 4
@cbch_block_reassembly_table = internal global %struct.reassembly_table zeroinitializer, align 8
@addresses_reassembly_table_functions = external constant %struct.reassembly_table_functions, align 8

; Function Attrs: null_pointer_is_valid sspstrong uwtable
define hidden void @proto_register_gsm_cbch() #0 {
  %1 = alloca ptr, align 8
  call void @llvm.lifetime.start.p0(i64 8, ptr %1) #7
  %2 = call i32 @proto_register_protocol(ptr noundef @.str.58, ptr noundef @.str.59, ptr noundef @.str.60)
  store i32 %2, ptr @proto_cbch, align 4
  %3 = load i32, ptr @proto_cbch, align 4
  call void @proto_register_field_array(i32 noundef %3, ptr noundef @proto_register_gsm_cbch.hf_smscb, i32 noundef 21)
  %4 = load i32, ptr @proto_cbch, align 4
  %5 = call ptr @expert_register_protocol(i32 noundef %4)
  store ptr %5, ptr %1, align 8
  %6 = load ptr, ptr %1, align 8
  call void @expert_register_field_array(ptr noundef %6, ptr noundef @proto_register_gsm_cbch.ei, i32 noundef 4)
  %7 = load i32, ptr @proto_cbch, align 4
  %8 = call ptr @register_dissector(ptr noundef @.str.60, ptr noundef @dissect_cbch, i32 noundef %7)
  call void @reassembly_table_register(ptr noundef @cbch_block_reassembly_table, ptr noundef @addresses_reassembly_table_functions)
  call void @proto_register_subtree_array(ptr noundef @proto_register_gsm_cbch.ett, i32 noundef 5)
  call void @llvm.lifetime.end.p0(i64 8, ptr %1) #7
  ret void
}