; Function Attrs: null_pointer_is_valid sspstrong uwtable
define hidden void @proto_register_gsm_cbch() local_unnamed_addr #0 {
  %1 = tail call i32 @proto_register_protocol(ptr noundef nonnull @.str.58, ptr noundef nonnull @.str.59, ptr noundef nonnull @.str.60)
  store i32 %1, ptr @proto_cbch, align 4
  tail call void @proto_register_field_array(i32 noundef %1, ptr noundef nonnull @proto_register_gsm_cbch.hf_smscb, i32 noundef 21)
  %2 = load i32, ptr @proto_cbch, align 4
  %3 = tail call ptr @expert_register_protocol(i32 noundef %2)
  tail call void @expert_register_field_array(ptr noundef %3, ptr noundef nonnull @proto_register_gsm_cbch.ei, i32 noundef 4)
  %4 = load i32, ptr @proto_cbch, align 4
  %5 = tail call ptr @register_dissector(ptr noundef nonnull @.str.60, ptr noundef nonnull @dissect_cbch, i32 noundef %4)
  tail call void @reassembly_table_register(ptr noundef nonnull @cbch_block_reassembly_table, ptr noundef nonnull @addresses_reassembly_table_functions)
  tail call void @proto_register_subtree_array(ptr noundef nonnull @proto_register_gsm_cbch.ett, i32 noundef 5)
  ret void
}